target datalayout = "e-m:e-p270:32:32-p271:32:32-p272:64:64-i64:64-i128:128-f80:128-n8:16:32:64-S128"
target triple = "x86_64-pc-linux-gnu"

%struct.evhttp_connection = type { %struct.anon, ptr, %struct.event, ptr, i16, ptr, i16, ptr, i64, i64, i32, %struct.timeval, %struct.timeval, %struct.timeval, i32, i32, %struct.timeval, i32, ptr, %struct.evcon_requestq, ptr, ptr, ptr, ptr, %struct.event_callback, ptr, ptr, i32, ptr }
%struct.anon = type { ptr, ptr }
%struct.event = type { %struct.event_callback, %union.anon.1, i32, i16, i16, ptr, %union.anon.3, %struct.timeval }
%union.anon.1 = type { %struct.anon.2 }
%struct.anon.2 = type { ptr, ptr }
%union.anon.3 = type { %struct.anon.4 }
%struct.anon.4 = type { %struct.anon.5, %struct.timeval }
%struct.anon.5 = type { ptr, ptr }
%struct.timeval = type { i64, i64 }
%struct.evcon_requestq = type { ptr, ptr }
%struct.event_callback = type { %struct.anon.0, i16, i8, i8, %union.anon, ptr }
%struct.anon.0 = type { ptr, ptr }
%union.anon = type { ptr }
%struct.evhttp_request = type { %struct.anon.8, ptr, i32, ptr, ptr, ptr, i16, ptr, i32, i32, i64, i64, ptr, ptr, i8, i8, i32, ptr, ptr, i64, i8, ptr, ptr, ptr, ptr, ptr, ptr, ptr, ptr }
%struct.anon.8 = type { ptr, ptr }
%struct.evhttp = type { %struct.anon.9, %struct.boundq, %struct.httpcbq, %struct.evconq, %struct.evwsq, i32, i32, %struct.vhostsq, %struct.aliasq, ptr, %struct.timeval, %struct.timeval, i64, i64, i32, ptr, i32, ptr, ptr, ptr, ptr, ptr, ptr, ptr, ptr, ptr, ptr }
%struct.anon.9 = type { ptr, ptr }
%struct.boundq = type { ptr, ptr }
%struct.httpcbq = type { ptr, ptr }
%struct.evconq = type { ptr, ptr }
%struct.evwsq = type { ptr, ptr }
%struct.vhostsq = type { ptr, ptr }
%struct.aliasq = type { ptr, ptr }

; Function Attrs: inlinehint nounwind uwtable
define internal void @evhttp_request_free_auto(ptr noundef %0) #7 {
  %2 = alloca ptr, align 8
  store ptr %0, ptr %2, align 8
  %3 = load ptr, ptr %2, align 8
  %4 = getelementptr inbounds nuw %struct.evhttp_request, ptr %3, i32 0, i32 2
  %5 = load i32, ptr %4, align 8
  %6 = and i32 %5, 4
  %7 = icmp ne i32 %6, 0
  br i1 %7, label %10, label %8

8:                                                ; preds = %1
  %9 = load ptr, ptr %2, align 8
  call void @evhttp_request_free(ptr noundef %9)
  br label %10

10:                                               ; preds = %8, %1
  ret void
}

; Function Attrs: nounwind uwtable
define internal void @evhttp_request_free_(ptr noundef %0, ptr noundef %1) #0 {
  %3 = alloca ptr, align 8
  %4 = alloca ptr, align 8
  store ptr %0, ptr %3, align 8
  store ptr %1, ptr %4, align 8
  br label %5

5:                                                ; preds = %2
  %6 = load ptr, ptr %4, align 8
  %7 = getelementptr inbounds nuw %struct.evhttp_request, ptr %6, i32 0, i32 0
  %8 = getelementptr inbounds nuw %struct.anon.8, ptr %7, i32 0, i32 0
  %9 = load ptr, ptr %8, align 8
  %10 = icmp ne ptr %9, null
  br i1 %10, label %11, label %22

11:                                               ; preds = %5
  %12 = load ptr, ptr %4, align 8
  %13 = getelementptr inbounds nuw %struct.evhttp_request, ptr %12, i32 0, i32 0
  %14 = getelementptr inbounds nuw %struct.anon.8, ptr %13, i32 0, i32 1
  %15 = load ptr, ptr %14, align 8
  %16 = load ptr, ptr %4, align 8
  %17 = getelementptr inbounds nuw %struct.evhttp_request, ptr %16, i32 0, i32 0
  %18 = getelementptr inbounds nuw %struct.anon.8, ptr %17, i32 0, i32 0
  %19 = load ptr, ptr %18, align 8
  %20 = getelementptr inbounds nuw %struct.evhttp_request, ptr %19, i32 0, i32 0
  %21 = getelementptr inbounds nuw %struct.anon.8, ptr %20, i32 0, i32 1
  store ptr %15, ptr %21, align 8
  br label %30

22:                                               ; preds = %5
  %23 = load ptr, ptr %4, align 8
  %24 = getelementptr inbounds nuw %struct.evhttp_request, ptr %23, i32 0, i32 0
  %25 = getelementptr inbounds nuw %struct.anon.8, ptr %24, i32 0, i32 1
  %26 = load ptr, ptr %25, align 8
  %27 = load ptr, ptr %3, align 8
  %28 = getelementptr inbounds nuw %struct.evhttp_connection, ptr %27, i32 0, i32 19
  %29 = getelementptr inbounds nuw %struct.evcon_requestq, ptr %28, i32 0, i32 1
  store ptr %26, ptr %29, align 8
  br label %30

30:                                               ; preds = %22, %11
  %31 = load ptr, ptr %4, align 8
  %32 = getelementptr inbounds nuw %struct.evhttp_request, ptr %31, i32 0, i32 0
  %33 = getelementptr inbounds nuw %struct.anon.8, ptr %32, i32 0, i32 0
  %34 = load ptr, ptr %33, align 8
  %35 = load ptr, ptr %4, align 8
  %36 = getelementptr inbounds nuw %struct.evhttp_request, ptr %35, i32 0, i32 0
  %37 = getelementptr inbounds nuw %struct.anon.8, ptr %36, i32 0, i32 1
  %38 = load ptr, ptr %37, align 8
  store ptr %34, ptr %38, align 8
  br label %39

39:                                               ; preds = %30
  %40 = load ptr, ptr %4, align 8
  call void @evhttp_request_free_auto(ptr noundef %40)
  ret void
}

; Function Attrs: nounwind uwtable
define internal i32 @evhttp_connected(ptr noundef %0) #0 {
  %2 = alloca i32, align 4
  %3 = alloca ptr, align 8
  store ptr %0, ptr %3, align 8
  %4 = load ptr, ptr %3, align 8
  %5 = getelementptr inbounds nuw %struct.evhttp_connection, ptr %4, i32 0, i32 17
  %6 = load i32, ptr %5, align 8
  switch i32 %6, label %9 [
    i32 0, label %7
    i32 1, label %7
    i32 2, label %8
    i32 3, label %8
    i32 4, label %8
    i32 5, label %8
    i32 6, label %8
    i32 7, label %8
  ]

7:                                                ; preds = %1, %1
  store i32 0, ptr %2, align 4
  br label %10

8:                                                ; preds = %1, %1, %1, %1, %1, %1
  br label %9

9:                                                ; preds = %1, %8
  store i32 1, ptr %2, align 4
  br label %10

10:                                               ; preds = %9, %7
  %11 = load i32, ptr %2, align 4
  ret i32 %11
}

; Function Attrs: nounwind uwtable
define void @evhttp_connection_free(ptr noundef %0) #0 {
  %2 = alloca ptr, align 8
  %3 = alloca ptr, align 8
  %4 = alloca ptr, align 8
  store ptr %0, ptr %2, align 8
  call void @llvm.lifetime.start.p0(i64 8, ptr %3) #11
  %5 = load ptr, ptr %2, align 8
  %6 = call i32 @evhttp_connected(ptr noundef %5)
  %7 = icmp ne i32 %6, 0
  br i1 %7, label %8, label %21

8:                                                ; preds = %1
  %9 = load ptr, ptr %2, align 8
  %10 = getelementptr inbounds nuw %struct.evhttp_connection, ptr %9, i32 0, i32 22
  %11 = load ptr, ptr %10, align 8
  %12 = icmp ne ptr %11, null
  br i1 %12, label %13, label %21

13:                                               ; preds = %8
  %14 = load ptr, ptr %2, align 8
  %15 = getelementptr inbounds nuw %struct.evhttp_connection, ptr %14, i32 0, i32 22
  %16 = load ptr, ptr %15, align 8
  %17 = load ptr, ptr %2, align 8
  %18 = load ptr, ptr %2, align 8
  %19 = getelementptr inbounds nuw %struct.evhttp_connection, ptr %18, i32 0, i32 23
  %20 = load ptr, ptr %19, align 8
  call void %16(ptr noundef %17, ptr noundef %20)
  br label %21

21:                                               ; preds = %13, %8, %1
  br label %22

22:                                               ; preds = %28, %21
  %23 = load ptr, ptr %2, align 8
  %24 = getelementptr inbounds nuw %struct.evhttp_connection, ptr %23, i32 0, i32 19
  %25 = getelementptr inbounds nuw %struct.evcon_requestq, ptr %24, i32 0, i32 0
  %26 = load ptr, ptr %25, align 8
  store ptr %26, ptr %3, align 8
  %27 = icmp ne ptr %26, null
  br i1 %27, label %28, label %31

28:                                               ; preds = %22
  %29 = load ptr, ptr %2, align 8
  %30 = load ptr, ptr %3, align 8
  call void @evhttp_request_free_(ptr noundef %29, ptr noundef %30)
  br label %22, !llvm.loop !6

31:                                               ; preds = %22
  %32 = load ptr, ptr %2, align 8
  %33 = getelementptr inbounds nuw %struct.evhttp_connection, ptr %32, i32 0, i32 18
  %34 = load ptr, ptr %33, align 8
  %35 = icmp ne ptr %34, null
  br i1 %35, label %36, label %80

36:                                               ; preds = %31
  call void @llvm.lifetime.start.p0(i64 8, ptr %4) #11
  %37 = load ptr, ptr %2, align 8
  %38 = getelementptr inbounds nuw %struct.evhttp_connection, ptr %37, i32 0, i32 18
  %39 = load ptr, ptr %38, align 8
  store ptr %39, ptr %4, align 8
  br label %40

40:                                               ; preds = %36
  %41 = load ptr, ptr %2, align 8
  %42 = getelementptr inbounds nuw %struct.evhttp_connection, ptr %41, i32 0, i32 0
  %43 = getelementptr inbounds nuw %struct.anon, ptr %42, i32 0, i32 0
  %44 = load ptr, ptr %43, align 8
  %45 = icmp ne ptr %44, null
  br i1 %45, label %46, label %57

46:                                               ; preds = %40
  %47 = load ptr, ptr %2, align 8
  %48 = getelementptr inbounds nuw %struct.evhttp_connection, ptr %47, i32 0, i32 0
  %49 = getelementptr inbounds nuw %struct.anon, ptr %48, i32 0, i32 1
  %50 = load ptr, ptr %49, align 8
  %51 = load ptr, ptr %2, align 8
  %52 = getelementptr inbounds nuw %struct.evhttp_connection, ptr %51, i32 0, i32 0
  %53 = getelementptr inbounds nuw %struct.anon, ptr %52, i32 0, i32 0
  %54 = load ptr, ptr %53, align 8
  %55 = getelementptr inbounds nuw %struct.evhttp_connection, ptr %54, i32 0, i32 0
  %56 = getelementptr inbounds nuw %struct.anon, ptr %55, i32 0, i32 1
  store ptr %50, ptr %56, align 8
  br label %65

57:                                               ; preds = %40
  %58 = load ptr, ptr %2, align 8
  %59 = getelementptr inbounds nuw %struct.evhttp_connection, ptr %58, i32 0, i32 0
  %60 = getelementptr inbounds nuw %struct.anon, ptr %59, i32 0, i32 1
  %61 = load ptr, ptr %60, align 8
  %62 = load ptr, ptr %4, align 8
  %63 = getelementptr inbounds nuw %struct.evhttp, ptr %62, i32 0, i32 3
  %64 = getelementptr inbounds nuw %struct.evconq, ptr %63, i32 0, i32 1
  store ptr %61, ptr %64, align 8
  br label %65

65:                                               ; preds = %57, %46
  %66 = load ptr, ptr %2, align 8
  %67 = getelementptr inbounds nuw %struct.evhttp_connection, ptr %66, i32 0, i32 0
  %68 = getelementptr inbounds nuw %struct.anon, ptr %67, i32 0, i32 0
  %69 = load ptr, ptr %68, align 8
  %70 = load ptr, ptr %2, align 8
  %71 = getelementptr inbounds nuw %struct.evhttp_connection, ptr %70, i32 0, i32 0
  %72 = getelementptr inbounds nuw %struct.anon, ptr %71, i32 0, i32 1
  %73 = load ptr, ptr %72, align 8
  store ptr %69, ptr %73, align 8
  br label %74

74:                                               ; preds = %65
  br label %75

75:                                               ; preds = %74
  %76 = load ptr, ptr %4, align 8
  %77 = getelementptr inbounds nuw %struct.evhttp, ptr %76, i32 0, i32 6
  %78 = load i32, ptr %77, align 4
  %79 = add nsw i32 %78, -1
  store i32 %79, ptr %77, align 4
  call void @llvm.lifetime.end.p0(i64 8, ptr %4) #11
  br label %80

80:                                               ; preds = %75, %31
  %81 = load ptr, ptr %2, align 8
  %82 = getelementptr inbounds nuw %struct.evhttp_connection, ptr %81, i32 0, i32 2
  %83 = call i32 @event_initialized(ptr noundef %82)
  %84 = icmp ne i32 %83, 0
  br i1 %84, label %85, label %91

85:                                               ; preds = %80
  %86 = load ptr, ptr %2, align 8
  %87 = getelementptr inbounds nuw %struct.evhttp_connection, ptr %86, i32 0, i32 2
  %88 = call i32 @event_del(ptr noundef %87)
  %89 = load ptr, ptr %2, align 8
  %90 = getelementptr inbounds nuw %struct.evhttp_connection, ptr %89, i32 0, i32 2
  call void @event_debug_unassign(ptr noundef %90)
  br label %91

91:                                               ; preds = %85, %80
  %92 = load ptr, ptr %2, align 8
  %93 = getelementptr inbounds nuw %struct.evhttp_connection, ptr %92, i32 0, i32 25
  %94 = load ptr, ptr %93, align 8
  %95 = load ptr, ptr %2, align 8
  %96 = getelementptr inbounds nuw %struct.evhttp_connection, ptr %95, i32 0, i32 24
  call void @event_deferred_cb_cancel_(ptr noundef %94, ptr noundef %96)
  %97 = load ptr, ptr %2, align 8
  %98 = getelementptr inbounds nuw %struct.evhttp_connection, ptr %97, i32 0, i32 1
  %99 = load ptr, ptr %98, align 8
  %100 = icmp ne ptr %99, null
  br i1 %100, label %101, label %105

101:                                              ; preds = %91
  %102 = load ptr, ptr %2, align 8
  %103 = getelementptr inbounds nuw %struct.evhttp_connection, ptr %102, i32 0, i32 1
  %104 = load ptr, ptr %103, align 8
  call void @bufferevent_free(ptr noundef %104)
  br label %105

105:                                              ; preds = %101, %91
  %106 = load ptr, ptr %2, align 8
  %107 = getelementptr inbounds nuw %struct.evhttp_connection, ptr %106, i32 0, i32 3
  %108 = load ptr, ptr %107, align 8
  %109 = icmp ne ptr %108, null
  br i1 %109, label %110, label %114

110:                                              ; preds = %105
  %111 = load ptr, ptr %2, align 8
  %112 = getelementptr inbounds nuw %struct.evhttp_connection, ptr %111, i32 0, i32 3
  %113 = load ptr, ptr %112, align 8
  call void @event_mm_free_(ptr noundef %113)
  br label %114

114:                                              ; preds = %110, %105
  %115 = load ptr, ptr %2, align 8
  %116 = getelementptr inbounds nuw %struct.evhttp_connection, ptr %115, i32 0, i32 5
  %117 = load ptr, ptr %116, align 8
  %118 = icmp ne ptr %117, null
  br i1 %118, label %119, label %123

119:                                              ; preds = %114
  %120 = load ptr, ptr %2, align 8
  %121 = getelementptr inbounds nuw %struct.evhttp_connection, ptr %120, i32 0, i32 5
  %122 = load ptr, ptr %121, align 8
  call void @event_mm_free_(ptr noundef %122)
  br label %123

123:                                              ; preds = %119, %114
  %124 = load ptr, ptr %2, align 8
  %125 = getelementptr inbounds nuw %struct.evhttp_connection, ptr %124, i32 0, i32 7
  %126 = load ptr, ptr %125, align 8
  %127 = icmp ne ptr %126, null
  br i1 %127, label %128, label %132

128:                                              ; preds = %123
  %129 = load ptr, ptr %2, align 8
  %130 = getelementptr inbounds nuw %struct.evhttp_connection, ptr %129, i32 0, i32 7
  %131 = load ptr, ptr %130, align 8
  call void @event_mm_free_(ptr noundef %131)
  br label %132

132:                                              ; preds = %128, %123
  %133 = load ptr, ptr %2, align 8
  call void @event_mm_free_(ptr noundef %133)
  call void @llvm.lifetime.end.p0(i64 8, ptr %3) #11
  ret void
}