; Function Attrs: nounwind uwtable
define void @evhttp_connection_free(ptr noundef %0) local_unnamed_addr #0 {
  %2 = getelementptr i8, ptr %0, i64 280
  %.val = load i32, ptr %2, align 8
  %switch.i = icmp ult i32 %.val, 2
  br i1 %switch.i, label %9, label %3

3:                                                ; preds = %1
  %4 = getelementptr inbounds nuw i8, ptr %0, i64 328
  %5 = load ptr, ptr %4, align 8
  %.not39 = icmp eq ptr %5, null
  br i1 %.not39, label %9, label %6

6:                                                ; preds = %3
  %7 = getelementptr inbounds nuw i8, ptr %0, i64 336
  %8 = load ptr, ptr %7, align 8
  tail call void %5(ptr noundef nonnull %0, ptr noundef %8) #18
  br label %9

9:                                                ; preds = %6, %3, %1
  %10 = getelementptr inbounds nuw i8, ptr %0, i64 296
  %11 = load ptr, ptr %10, align 8
  %.not4048 = icmp eq ptr %11, null
  br i1 %.not4048, label %._crit_edge, label %.lr.ph

.lr.ph:                                           ; preds = %9
  %12 = getelementptr inbounds nuw i8, ptr %0, i64 304
  br label %13

13:                                               ; preds = %.lr.ph, %evhttp_request_free_.exit
  %14 = phi ptr [ %11, %.lr.ph ], [ %27, %evhttp_request_free_.exit ]
  %15 = load ptr, ptr %14, align 8
  %.not.i = icmp eq ptr %15, null
  %16 = getelementptr inbounds nuw i8, ptr %14, i64 8
  %17 = load ptr, ptr %16, align 8
  br i1 %.not.i, label %20, label %18

18:                                               ; preds = %13
  %19 = getelementptr inbounds nuw i8, ptr %15, i64 8
  store ptr %17, ptr %19, align 8
  br label %21

20:                                               ; preds = %13
  store ptr %17, ptr %12, align 8
  br label %21

21:                                               ; preds = %20, %18
  %22 = load ptr, ptr %14, align 8
  store ptr %22, ptr %17, align 8
  %23 = getelementptr inbounds nuw i8, ptr %14, i64 24
  %24 = load i32, ptr %23, align 8
  %25 = and i32 %24, 4
  %.not.i.i = icmp eq i32 %25, 0
  br i1 %.not.i.i, label %26, label %evhttp_request_free_.exit

26:                                               ; preds = %21
  tail call void @evhttp_request_free(ptr noundef nonnull %14)
  br label %evhttp_request_free_.exit

evhttp_request_free_.exit:                        ; preds = %21, %26
  %27 = load ptr, ptr %10, align 8
  %.not40 = icmp eq ptr %27, null
  br i1 %.not40, label %._crit_edge, label %13, !llvm.loop !6

._crit_edge:                                      ; preds = %evhttp_request_free_.exit, %9
  %28 = getelementptr inbounds nuw i8, ptr %0, i64 288
  %29 = load ptr, ptr %28, align 8
  %.not41 = icmp eq ptr %29, null
  br i1 %.not41, label %43, label %30

30:                                               ; preds = %._crit_edge
  %31 = load ptr, ptr %0, align 8
  %.not42 = icmp eq ptr %31, null
  %32 = getelementptr inbounds nuw i8, ptr %0, i64 8
  %33 = load ptr, ptr %32, align 8
  br i1 %.not42, label %36, label %34

34:                                               ; preds = %30
  %35 = getelementptr inbounds nuw i8, ptr %31, i64 8
  store ptr %33, ptr %35, align 8
  br label %38

36:                                               ; preds = %30
  %37 = getelementptr inbounds nuw i8, ptr %29, i64 56
  store ptr %33, ptr %37, align 8
  br label %38

38:                                               ; preds = %36, %34
  %39 = load ptr, ptr %0, align 8
  store ptr %39, ptr %33, align 8
  %40 = getelementptr inbounds nuw i8, ptr %29, i64 84
  %41 = load i32, ptr %40, align 4
  %42 = add nsw i32 %41, -1
  store i32 %42, ptr %40, align 4
  br label %43

43:                                               ; preds = %38, %._crit_edge
  %44 = getelementptr inbounds nuw i8, ptr %0, i64 24
  %45 = tail call i32 @event_initialized(ptr noundef nonnull %44) #18
  %.not43 = icmp eq i32 %45, 0
  br i1 %.not43, label %48, label %46

46:                                               ; preds = %43
  %47 = tail call i32 @event_del(ptr noundef nonnull %44) #18
  tail call void @event_debug_unassign(ptr noundef nonnull %44) #18
  br label %48

48:                                               ; preds = %46, %43
  %49 = getelementptr inbounds nuw i8, ptr %0, i64 384
  %50 = load ptr, ptr %49, align 8
  %51 = getelementptr inbounds nuw i8, ptr %0, i64 344
  tail call void @event_deferred_cb_cancel_(ptr noundef %50, ptr noundef nonnull %51) #18
  %52 = getelementptr inbounds nuw i8, ptr %0, i64 16
  %53 = load ptr, ptr %52, align 8
  %.not44 = icmp eq ptr %53, null
  br i1 %.not44, label %55, label %54

54:                                               ; preds = %48
  tail call void @bufferevent_free(ptr noundef nonnull %53) #18
  br label %55

55:                                               ; preds = %54, %48
  %56 = getelementptr inbounds nuw i8, ptr %0, i64 144
  %57 = load ptr, ptr %56, align 8
  %.not45 = icmp eq ptr %57, null
  br i1 %.not45, label %59, label %58

58:                                               ; preds = %55
  tail call void @event_mm_free_(ptr noundef nonnull %57) #18
  br label %59

59:                                               ; preds = %58, %55
  %60 = getelementptr inbounds nuw i8, ptr %0, i64 160
  %61 = load ptr, ptr %60, align 8
  %.not46 = icmp eq ptr %61, null
  br i1 %.not46, label %63, label %62

62:                                               ; preds = %59
  tail call void @event_mm_free_(ptr noundef nonnull %61) #18
  br label %63

63:                                               ; preds = %62, %59
  %64 = getelementptr inbounds nuw i8, ptr %0, i64 176
  %65 = load ptr, ptr %64, align 8
  %.not47 = icmp eq ptr %65, null
  br i1 %.not47, label %67, label %66

66:                                               ; preds = %63
  tail call void @event_mm_free_(ptr noundef nonnull %65) #18
  br label %67

67:                                               ; preds = %66, %63
  tail call void @event_mm_free_(ptr noundef nonnull %0) #18
  ret void
}